; Function Attrs: mustprogress uwtable
define internal fastcc void @_ZN12_GLOBAL__N_13TLL14AppendPropertyERKNSt7__cxx1112basic_stringIcSt11char_traitsIcESaIcEEES8_(ptr noundef nonnull align 8 dereferenceable(112) %0, ptr noundef nonnull align 8 dereferenceable(32) %1, ptr noundef nonnull align 8 dereferenceable(32) %2) unnamed_addr #3 align 2 personality ptr @__gxx_personality_v0 {
  %4 = alloca %"class.std::optional.472", align 8
  %5 = alloca %class.cmListFileBacktrace, align 8
  tail call fastcc void @_ZN12_GLOBAL__N_13TLL15AffectsPropertyERKNSt7__cxx1112basic_stringIcSt11char_traitsIcESaIcEEE(ptr noundef nonnull align 8 dereferenceable(112) %0, ptr noundef nonnull align 8 dereferenceable(32) %1)
  %6 = getelementptr inbounds nuw i8, ptr %0, i64 8
  %7 = load ptr, ptr %6, align 8
  %8 = load ptr, ptr %0, align 8
  call void @_ZNK10cmMakefile12GetBacktraceEv(ptr dead_on_unwind nonnull writable sret(%class.cmListFileBacktrace) align 8 %5, ptr noundef nonnull align 8 dereferenceable(3520) %8)
  %9 = load ptr, ptr %5, align 8
  store ptr %9, ptr %4, align 8
  %10 = getelementptr inbounds nuw i8, ptr %4, i64 8
  %11 = getelementptr inbounds nuw i8, ptr %5, i64 8
  %12 = load ptr, ptr %11, align 8
  store ptr null, ptr %11, align 8
  store ptr %12, ptr %10, align 8
  store ptr null, ptr %5, align 8
  %13 = getelementptr inbounds nuw i8, ptr %4, i64 16
  store i8 1, ptr %13, align 8
  invoke void @_ZN8cmTarget14AppendPropertyERKNSt7__cxx1112basic_stringIcSt11char_traitsIcESaIcEEES7_RKSt8optionalI19cmListFileBacktraceEb(ptr noundef nonnull align 8 dereferenceable(8) %7, ptr noundef nonnull align 8 dereferenceable(32) %1, ptr noundef nonnull align 8 dereferenceable(32) %2, ptr noundef nonnull align 8 dereferenceable(24) %4, i1 noundef zeroext false)
          to label %14 unwind label %88

14:                                               ; preds = %3
  %15 = load i8, ptr %13, align 8
  %16 = trunc i8 %15 to i1
  br i1 %16, label %17, label %_ZNSt8optionalI19cmListFileBacktraceED2Ev.exit

17:                                               ; preds = %14
  store i8 0, ptr %13, align 8
  %18 = load ptr, ptr %10, align 8
  %.not.i.i.i.i.i.i.i.i.i.i = icmp eq ptr %18, null
  br i1 %.not.i.i.i.i.i.i.i.i.i.i, label %_ZNSt8optionalI19cmListFileBacktraceED2Ev.exit, label %19

19:                                               ; preds = %17
  %20 = getelementptr inbounds nuw i8, ptr %18, i64 8
  %21 = load atomic i64, ptr %20 acquire, align 8
  %22 = icmp eq i64 %21, 4294967297
  %23 = trunc i64 %21 to i32
  br i1 %22, label %24, label %29

24:                                               ; preds = %19
  store i32 0, ptr %20, align 8
  %25 = getelementptr inbounds nuw i8, ptr %18, i64 12
  store i32 0, ptr %25, align 4
  %26 = load ptr, ptr %18, align 8
  %27 = getelementptr inbounds nuw i8, ptr %26, i64 16
  %28 = load ptr, ptr %27, align 8
  call void %28(ptr noundef nonnull align 8 dereferenceable(16) %18) #17
  br label %_ZNSt16_Sp_counted_baseILN9__gnu_cxx12_Lock_policyE2EE24_M_release_last_use_coldEv.exit.sink.split.i.i.i.i.i.i.i.i.i.i.i

29:                                               ; preds = %19
  %30 = load i8, ptr @__libc_single_threaded, align 1
  %.not.i.i.i.i.i.i.i.i.i.i.i = icmp eq i8 %30, 0
  br i1 %.not.i.i.i.i.i.i.i.i.i.i.i, label %33, label %31

31:                                               ; preds = %29
  %32 = add nsw i32 %23, -1
  store i32 %32, ptr %20, align 4
  br label %35

33:                                               ; preds = %29
  %34 = atomicrmw volatile add ptr %20, i32 -1 acq_rel, align 4
  br label %35

35:                                               ; preds = %33, %31
  %.0.i.i.i.i.i.i.i.i.i.i.i = phi i32 [ %23, %31 ], [ %34, %33 ]
  %36 = icmp eq i32 %.0.i.i.i.i.i.i.i.i.i.i.i, 1
  br i1 %36, label %37, label %_ZNSt8optionalI19cmListFileBacktraceED2Ev.exit

37:                                               ; preds = %35
  %38 = load ptr, ptr %18, align 8
  %39 = getelementptr inbounds nuw i8, ptr %38, i64 16
  %40 = load ptr, ptr %39, align 8
  call void %40(ptr noundef nonnull align 8 dereferenceable(16) %18) #17
  %41 = getelementptr inbounds nuw i8, ptr %18, i64 12
  %42 = load i8, ptr @__libc_single_threaded, align 1
  %.not.i.i.i.i.i.i.i.i.i.i.i.i.i = icmp eq i8 %42, 0
  br i1 %.not.i.i.i.i.i.i.i.i.i.i.i.i.i, label %46, label %43

43:                                               ; preds = %37
  %44 = load i32, ptr %41, align 4
  %45 = add nsw i32 %44, -1
  store i32 %45, ptr %41, align 4
  br label %48

46:                                               ; preds = %37
  %47 = atomicrmw volatile add ptr %41, i32 -1 acq_rel, align 4
  br label %48

48:                                               ; preds = %46, %43
  %.0.i.i.i.i.i.i.i.i.i.i.i.i.i = phi i32 [ %44, %43 ], [ %47, %46 ]
  %49 = icmp eq i32 %.0.i.i.i.i.i.i.i.i.i.i.i.i.i, 1
  br i1 %49, label %_ZNSt16_Sp_counted_baseILN9__gnu_cxx12_Lock_policyE2EE24_M_release_last_use_coldEv.exit.sink.split.i.i.i.i.i.i.i.i.i.i.i, label %_ZNSt8optionalI19cmListFileBacktraceED2Ev.exit

_ZNSt16_Sp_counted_baseILN9__gnu_cxx12_Lock_policyE2EE24_M_release_last_use_coldEv.exit.sink.split.i.i.i.i.i.i.i.i.i.i.i: ; preds = %48, %24
  %50 = load ptr, ptr %18, align 8
  %51 = getelementptr inbounds nuw i8, ptr %50, i64 24
  %52 = load ptr, ptr %51, align 8
  call void %52(ptr noundef nonnull align 8 dereferenceable(16) %18) #17
  br label %_ZNSt8optionalI19cmListFileBacktraceED2Ev.exit

_ZNSt8optionalI19cmListFileBacktraceED2Ev.exit:   ; preds = %14, %17, %35, %48, %_ZNSt16_Sp_counted_baseILN9__gnu_cxx12_Lock_policyE2EE24_M_release_last_use_coldEv.exit.sink.split.i.i.i.i.i.i.i.i.i.i.i
  %53 = load ptr, ptr %11, align 8
  %.not.i.i.i.i.i = icmp eq ptr %53, null
  br i1 %.not.i.i.i.i.i, label %_ZN19cmListFileBacktraceD2Ev.exit, label %54

54:                                               ; preds = %_ZNSt8optionalI19cmListFileBacktraceED2Ev.exit
  %55 = getelementptr inbounds nuw i8, ptr %53, i64 8
  %56 = load atomic i64, ptr %55 acquire, align 8
  %57 = icmp eq i64 %56, 4294967297
  %58 = trunc i64 %56 to i32
  br i1 %57, label %59, label %64

59:                                               ; preds = %54
  store i32 0, ptr %55, align 8
  %60 = getelementptr inbounds nuw i8, ptr %53, i64 12
  store i32 0, ptr %60, align 4
  %61 = load ptr, ptr %53, align 8
  %62 = getelementptr inbounds nuw i8, ptr %61, i64 16
  %63 = load ptr, ptr %62, align 8
  call void %63(ptr noundef nonnull align 8 dereferenceable(16) %53) #17
  br label %_ZNSt16_Sp_counted_baseILN9__gnu_cxx12_Lock_policyE2EE24_M_release_last_use_coldEv.exit.sink.split.i.i.i.i.i.i

64:                                               ; preds = %54
  %65 = load i8, ptr @__libc_single_threaded, align 1
  %.not.i.i.i.i.i.i = icmp eq i8 %65, 0
  br i1 %.not.i.i.i.i.i.i, label %68, label %66

66:                                               ; preds = %64
  %67 = add nsw i32 %58, -1
  store i32 %67, ptr %55, align 4
  br label %70

68:                                               ; preds = %64
  %69 = atomicrmw volatile add ptr %55, i32 -1 acq_rel, align 4
  br label %70

70:                                               ; preds = %68, %66
  %.0.i.i.i.i.i.i = phi i32 [ %58, %66 ], [ %69, %68 ]
  %71 = icmp eq i32 %.0.i.i.i.i.i.i, 1
  br i1 %71, label %72, label %_ZN19cmListFileBacktraceD2Ev.exit

72:                                               ; preds = %70
  %73 = load ptr, ptr %53, align 8
  %74 = getelementptr inbounds nuw i8, ptr %73, i64 16
  %75 = load ptr, ptr %74, align 8
  call void %75(ptr noundef nonnull align 8 dereferenceable(16) %53) #17
  %76 = getelementptr inbounds nuw i8, ptr %53, i64 12
  %77 = load i8, ptr @__libc_single_threaded, align 1
  %.not.i.i.i.i.i.i.i.i = icmp eq i8 %77, 0
  br i1 %.not.i.i.i.i.i.i.i.i, label %81, label %78

78:                                               ; preds = %72
  %79 = load i32, ptr %76, align 4
  %80 = add nsw i32 %79, -1
  store i32 %80, ptr %76, align 4
  br label %83

81:                                               ; preds = %72
  %82 = atomicrmw volatile add ptr %76, i32 -1 acq_rel, align 4
  br label %83

83:                                               ; preds = %81, %78
  %.0.i.i.i.i.i.i.i.i = phi i32 [ %79, %78 ], [ %82, %81 ]
  %84 = icmp eq i32 %.0.i.i.i.i.i.i.i.i, 1
  br i1 %84, label %_ZNSt16_Sp_counted_baseILN9__gnu_cxx12_Lock_policyE2EE24_M_release_last_use_coldEv.exit.sink.split.i.i.i.i.i.i, label %_ZN19cmListFileBacktraceD2Ev.exit

_ZNSt16_Sp_counted_baseILN9__gnu_cxx12_Lock_policyE2EE24_M_release_last_use_coldEv.exit.sink.split.i.i.i.i.i.i: ; preds = %83, %59
  %85 = load ptr, ptr %53, align 8
  %86 = getelementptr inbounds nuw i8, ptr %85, i64 24
  %87 = load ptr, ptr %86, align 8
  call void %87(ptr noundef nonnull align 8 dereferenceable(16) %53) #17
  br label %_ZN19cmListFileBacktraceD2Ev.exit

_ZN19cmListFileBacktraceD2Ev.exit:                ; preds = %_ZNSt8optionalI19cmListFileBacktraceED2Ev.exit, %70, %83, %_ZNSt16_Sp_counted_baseILN9__gnu_cxx12_Lock_policyE2EE24_M_release_last_use_coldEv.exit.sink.split.i.i.i.i.i.i
  ret void

88:                                               ; preds = %3
  %89 = landingpad { ptr, i32 }
          cleanup
  call void @_ZNSt8optionalI19cmListFileBacktraceED2Ev(ptr noundef nonnull align 8 dereferenceable(24) %4) #17
  call void @_ZN19cmListFileBacktraceD2Ev(ptr noundef nonnull align 8 dereferenceable(16) %5) #17
  resume { ptr, i32 } %89
}